target datalayout = "e-m:e-p270:32:32-p271:32:32-p272:64:64-i64:64-i128:128-f80:128-n8:16:32:64-S128"
target triple = "x86_64-pc-linux-gnu"

@hf_opa_reserved32 = internal global i32 0, align 4
@hf_opa_ServiceRecord = internal global i32 0, align 4
@hf_opa_ServiceRecord_ServiceLease = internal global i32 0, align 4
@hf_opa_ServiceRecord_ServiceKey = internal global i32 0, align 4
@hf_opa_ServiceRecord_ServiceName = internal global i32 0, align 4
@hf_opa_ServiceRecord_ServiceData = internal global i32 0, align 4
@ett_servicerecord = internal global i32 0, align 4
@.str.2426 = private unnamed_addr constant [24 x i8] c"(ServiceData 8.1, 8.16)\00", align 1
@.str.2427 = private unnamed_addr constant [25 x i8] c"(ServiceData 16.1, 16.8)\00", align 1
@.str.2428 = private unnamed_addr constant [25 x i8] c"(ServiceData 32.1, 32.4)\00", align 1
@.str.2429 = private unnamed_addr constant [25 x i8] c"(ServiceData 64.1, 64.2)\00", align 1

; Function Attrs: null_pointer_is_valid sspstrong uwtable
define internal i32 @parse_ServiceRecord(ptr noundef %0, ptr noundef %1, ptr noundef %2) #0 {
  %4 = alloca i32, align 4
  %5 = alloca ptr, align 8
  %6 = alloca ptr, align 8
  %7 = alloca ptr, align 8
  %8 = alloca i32, align 4
  %9 = alloca ptr, align 8
  %10 = alloca ptr, align 8
  %11 = alloca ptr, align 8
  %12 = alloca i32, align 4
  store ptr %0, ptr %5, align 8
  store ptr %1, ptr %6, align 8
  store ptr %2, ptr %7, align 8
  call void @llvm.lifetime.start.p0(i64 4, ptr %8) #7
  %13 = load ptr, ptr %7, align 8
  %14 = load i32, ptr %13, align 4
  store i32 %14, ptr %8, align 4
  call void @llvm.lifetime.start.p0(i64 8, ptr %9) #7
  call void @llvm.lifetime.start.p0(i64 8, ptr %10) #7
  call void @llvm.lifetime.start.p0(i64 8, ptr %11) #7
  %15 = load ptr, ptr %5, align 8
  %16 = icmp ne ptr %15, null
  br i1 %16, label %20, label %17

17:                                               ; preds = %3
  %18 = load ptr, ptr %7, align 8
  %19 = load i32, ptr %18, align 4
  store i32 %19, ptr %4, align 4
  store i32 1, ptr %12, align 4
  br label %90

20:                                               ; preds = %3
  %21 = load ptr, ptr %5, align 8
  %22 = load i32, ptr @hf_opa_ServiceRecord, align 4
  %23 = load ptr, ptr %6, align 8
  %24 = load i32, ptr %8, align 4
  %25 = call ptr @proto_tree_add_item(ptr noundef %21, i32 noundef %22, ptr noundef %23, i32 noundef %24, i32 noundef 152, i32 noundef 0)
  store ptr %25, ptr %9, align 8
  %26 = load ptr, ptr %9, align 8
  %27 = load i32, ptr @ett_servicerecord, align 4
  %28 = call ptr @proto_item_add_subtree(ptr noundef %26, i32 noundef %27)
  store ptr %28, ptr %10, align 8
  %29 = load ptr, ptr %10, align 8
  %30 = load i32, ptr @hf_opa_ServiceRecord_ServiceLease, align 4
  %31 = load ptr, ptr %6, align 8
  %32 = load i32, ptr %8, align 4
  %33 = call ptr @proto_tree_add_item(ptr noundef %29, i32 noundef %30, ptr noundef %31, i32 noundef %32, i32 noundef 4, i32 noundef 0)
  %34 = load i32, ptr %8, align 4
  %35 = add i32 %34, 4
  store i32 %35, ptr %8, align 4
  %36 = load ptr, ptr %10, align 8
  %37 = load i32, ptr @hf_opa_reserved32, align 4
  %38 = load ptr, ptr %6, align 8
  %39 = load i32, ptr %8, align 4
  %40 = call ptr @proto_tree_add_item(ptr noundef %36, i32 noundef %37, ptr noundef %38, i32 noundef %39, i32 noundef 4, i32 noundef 0)
  %41 = load i32, ptr %8, align 4
  %42 = add i32 %41, 4
  store i32 %42, ptr %8, align 4
  %43 = load ptr, ptr %10, align 8
  %44 = load i32, ptr @hf_opa_ServiceRecord_ServiceKey, align 4
  %45 = load ptr, ptr %6, align 8
  %46 = load i32, ptr %8, align 4
  %47 = call ptr @proto_tree_add_item(ptr noundef %43, i32 noundef %44, ptr noundef %45, i32 noundef %46, i32 noundef 16, i32 noundef 0)
  %48 = load i32, ptr %8, align 4
  %49 = add i32 %48, 16
  store i32 %49, ptr %8, align 4
  %50 = load ptr, ptr %10, align 8
  %51 = load i32, ptr @hf_opa_ServiceRecord_ServiceName, align 4
  %52 = load ptr, ptr %6, align 8
  %53 = load i32, ptr %8, align 4
  %54 = call ptr @proto_tree_add_item(ptr noundef %50, i32 noundef %51, ptr noundef %52, i32 noundef %53, i32 noundef 64, i32 noundef 0)
  %55 = load i32, ptr %8, align 4
  %56 = add i32 %55, 64
  store i32 %56, ptr %8, align 4
  %57 = load ptr, ptr %10, align 8
  %58 = load i32, ptr @hf_opa_ServiceRecord_ServiceData, align 4
  %59 = load ptr, ptr %6, align 8
  %60 = load i32, ptr %8, align 4
  %61 = call ptr @proto_tree_add_item(ptr noundef %57, i32 noundef %58, ptr noundef %59, i32 noundef %60, i32 noundef 16, i32 noundef 0)
  store ptr %61, ptr %11, align 8
  %62 = load i32, ptr %8, align 4
  %63 = add i32 %62, 16
  store i32 %63, ptr %8, align 4
  %64 = load ptr, ptr %11, align 8
  call void (ptr, ptr, ...) @proto_item_append_text(ptr noundef %64, ptr noundef @.str.2426)
  %65 = load ptr, ptr %10, align 8
  %66 = load i32, ptr @hf_opa_ServiceRecord_ServiceData, align 4
  %67 = load ptr, ptr %6, align 8
  %68 = load i32, ptr %8, align 4
  %69 = call ptr @proto_tree_add_item(ptr noundef %65, i32 noundef %66, ptr noundef %67, i32 noundef %68, i32 noundef 16, i32 noundef 0)
  store ptr %69, ptr %11, align 8
  %70 = load i32, ptr %8, align 4
  %71 = add i32 %70, 16
  store i32 %71, ptr %8, align 4
  %72 = load ptr, ptr %11, align 8
  call void (ptr, ptr, ...) @proto_item_append_text(ptr noundef %72, ptr noundef @.str.2427)
  %73 = load ptr, ptr %10, align 8
  %74 = load i32, ptr @hf_opa_ServiceRecord_ServiceData, align 4
  %75 = load ptr, ptr %6, align 8
  %76 = load i32, ptr %8, align 4
  %77 = call ptr @proto_tree_add_item(ptr noundef %73, i32 noundef %74, ptr noundef %75, i32 noundef %76, i32 noundef 16, i32 noundef 0)
  store ptr %77, ptr %11, align 8
  %78 = load i32, ptr %8, align 4
  %79 = add i32 %78, 16
  store i32 %79, ptr %8, align 4
  %80 = load ptr, ptr %11, align 8
  call void (ptr, ptr, ...) @proto_item_append_text(ptr noundef %80, ptr noundef @.str.2428)
  %81 = load ptr, ptr %10, align 8
  %82 = load i32, ptr @hf_opa_ServiceRecord_ServiceData, align 4
  %83 = load ptr, ptr %6, align 8
  %84 = load i32, ptr %8, align 4
  %85 = call ptr @proto_tree_add_item(ptr noundef %81, i32 noundef %82, ptr noundef %83, i32 noundef %84, i32 noundef 16, i32 noundef 0)
  store ptr %85, ptr %11, align 8
  %86 = load i32, ptr %8, align 4
  %87 = add i32 %86, 16
  store i32 %87, ptr %8, align 4
  %88 = load ptr, ptr %11, align 8
  call void (ptr, ptr, ...) @proto_item_append_text(ptr noundef %88, ptr noundef @.str.2429)
  %89 = load i32, ptr %8, align 4
  store i32 %89, ptr %4, align 4
  store i32 1, ptr %12, align 4
  br label %90

90:                                               ; preds = %20, %17
  call void @llvm.lifetime.end.p0(i64 8, ptr %11) #7
  call void @llvm.lifetime.end.p0(i64 8, ptr %10) #7
  call void @llvm.lifetime.end.p0(i64 8, ptr %9) #7
  call void @llvm.lifetime.end.p0(i64 4, ptr %8) #7
  %91 = load i32, ptr %4, align 4
  ret i32 %91
}