; Function Attrs: null_pointer_is_valid sspstrong uwtable
define internal fastcc void @parse_ServiceRecord(ptr noundef %0, ptr noundef %1, i32 %.0.val) unnamed_addr #0 {
  %.not = icmp eq ptr %0, null
  br i1 %.not, label %31, label %3

3:                                                ; preds = %2
  %4 = load i32, ptr @hf_opa_ServiceRecord, align 4
  %5 = tail call ptr @proto_tree_add_item(ptr noundef nonnull %0, i32 noundef %4, ptr noundef %1, i32 noundef %.0.val, i32 noundef 152, i32 noundef 0)
  %6 = load i32, ptr @ett_servicerecord, align 4
  %7 = tail call ptr @proto_item_add_subtree(ptr noundef %5, i32 noundef %6)
  %8 = load i32, ptr @hf_opa_ServiceRecord_ServiceLease, align 4
  %9 = tail call ptr @proto_tree_add_item(ptr noundef %7, i32 noundef %8, ptr noundef %1, i32 noundef %.0.val, i32 noundef 4, i32 noundef 0)
  %10 = add i32 %.0.val, 4
  %11 = load i32, ptr @hf_opa_reserved32, align 4
  %12 = tail call ptr @proto_tree_add_item(ptr noundef %7, i32 noundef %11, ptr noundef %1, i32 noundef %10, i32 noundef 4, i32 noundef 0)
  %13 = add i32 %.0.val, 8
  %14 = load i32, ptr @hf_opa_ServiceRecord_ServiceKey, align 4
  %15 = tail call ptr @proto_tree_add_item(ptr noundef %7, i32 noundef %14, ptr noundef %1, i32 noundef %13, i32 noundef 16, i32 noundef 0)
  %16 = add i32 %.0.val, 24
  %17 = load i32, ptr @hf_opa_ServiceRecord_ServiceName, align 4
  %18 = tail call ptr @proto_tree_add_item(ptr noundef %7, i32 noundef %17, ptr noundef %1, i32 noundef %16, i32 noundef 64, i32 noundef 0)
  %19 = add i32 %.0.val, 88
  %20 = load i32, ptr @hf_opa_ServiceRecord_ServiceData, align 4
  %21 = tail call ptr @proto_tree_add_item(ptr noundef %7, i32 noundef %20, ptr noundef %1, i32 noundef %19, i32 noundef 16, i32 noundef 0)
  %22 = add i32 %.0.val, 104
  tail call void (ptr, ptr, ...) @proto_item_append_text(ptr noundef %21, ptr noundef nonnull @.str.2426)
  %23 = load i32, ptr @hf_opa_ServiceRecord_ServiceData, align 4
  %24 = tail call ptr @proto_tree_add_item(ptr noundef %7, i32 noundef %23, ptr noundef %1, i32 noundef %22, i32 noundef 16, i32 noundef 0)
  %25 = add i32 %.0.val, 120
  tail call void (ptr, ptr, ...) @proto_item_append_text(ptr noundef %24, ptr noundef nonnull @.str.2427)
  %26 = load i32, ptr @hf_opa_ServiceRecord_ServiceData, align 4
  %27 = tail call ptr @proto_tree_add_item(ptr noundef %7, i32 noundef %26, ptr noundef %1, i32 noundef %25, i32 noundef 16, i32 noundef 0)
  %28 = add i32 %.0.val, 136
  tail call void (ptr, ptr, ...) @proto_item_append_text(ptr noundef %27, ptr noundef nonnull @.str.2428)
  %29 = load i32, ptr @hf_opa_ServiceRecord_ServiceData, align 4
  %30 = tail call ptr @proto_tree_add_item(ptr noundef %7, i32 noundef %29, ptr noundef %1, i32 noundef %28, i32 noundef 16, i32 noundef 0)
  tail call void (ptr, ptr, ...) @proto_item_append_text(ptr noundef %30, ptr noundef nonnull @.str.2429)
  br label %31

31:                                               ; preds = %2, %3
  ret void
}